target datalayout = "e-m:e-p270:32:32-p271:32:32-p272:64:64-i64:64-i128:128-f80:128-n8:16:32:64-S128"
target triple = "x86_64-pc-linux-gnu"

@.str.3 = private unnamed_addr constant [11 x i8] c"postgres.c\00", align 1
@userDoption = internal global ptr null, align 8
@progname = external global ptr, align 8
@.str.87 = private unnamed_addr constant [40 x i8] c"%s: no database nor user name specified\00", align 1
@__func__.PostgresSingleUserMain = private unnamed_addr constant [23 x i8] c"PostgresSingleUserMain\00", align 1
@PgStartTime = external global i64, align 8

; Function Attrs: noreturn nounwind uwtable
define dso_local void @PostgresSingleUserMain(i32 noundef %0, ptr noundef %1, ptr noundef %2) #8 {
  %4 = alloca i32, align 4
  %5 = alloca ptr, align 8
  %6 = alloca ptr, align 8
  %7 = alloca ptr, align 8
  store i32 %0, ptr %4, align 4
  store ptr %1, ptr %5, align 8
  store ptr %2, ptr %6, align 8
  call void @llvm.lifetime.start.p0(i64 8, ptr %7) #16
  store ptr null, ptr %7, align 8
  %8 = load ptr, ptr %5, align 8
  %9 = getelementptr inbounds ptr, ptr %8, i64 0
  %10 = load ptr, ptr %9, align 8
  call void @InitStandaloneProcess(ptr noundef %10)
  call void @InitializeGUCOptions()
  %11 = load i32, ptr %4, align 4
  %12 = load ptr, ptr %5, align 8
  call void @process_postgres_switches(i32 noundef %11, ptr noundef %12, i32 noundef 1, ptr noundef %7)
  %13 = load ptr, ptr %7, align 8
  %14 = icmp eq ptr %13, null
  br i1 %14, label %15, label %33

15:                                               ; preds = %3
  %16 = load ptr, ptr %6, align 8
  store ptr %16, ptr %7, align 8
  %17 = load ptr, ptr %7, align 8
  %18 = icmp eq ptr %17, null
  br i1 %18, label %19, label %32

19:                                               ; preds = %15
  br label %20

20:                                               ; preds = %19
  br i1 true, label %21, label %23

21:                                               ; preds = %20
  %22 = call zeroext i1 @errstart_cold(i32 noundef 22, ptr noundef null) #18
  br i1 %22, label %25, label %29

23:                                               ; preds = %20
  %24 = call zeroext i1 @errstart(i32 noundef 22, ptr noundef null)
  br i1 %24, label %25, label %29

25:                                               ; preds = %23, %21
  %26 = call i32 @errcode(i32 noundef 50856066)
  %27 = load ptr, ptr @progname, align 8
  %28 = call i32 (ptr, ...) @errmsg(ptr noundef @.str.87, ptr noundef %27)
  call void @errfinish(ptr noundef @.str.3, i32 noundef 4045, ptr noundef @__func__.PostgresSingleUserMain)
  br label %29

29:                                               ; preds = %25, %23, %21
  unreachable

30:                                               ; No predecessors!
  br label %31

31:                                               ; preds = %30
  br label %32

32:                                               ; preds = %31, %15
  br label %33

33:                                               ; preds = %32, %3
  %34 = load ptr, ptr @userDoption, align 8
  %35 = load ptr, ptr @progname, align 8
  %36 = call zeroext i1 @SelectConfigFiles(ptr noundef %34, ptr noundef %35)
  br i1 %36, label %38, label %37

37:                                               ; preds = %33
  call void @proc_exit(i32 noundef 1) #19
  unreachable

38:                                               ; preds = %33
  call void @checkDataDir()
  call void @ChangeToDataDir()
  call void @CreateDataDirLockFile(i1 noundef zeroext false)
  call void @LocalProcessControlFile(i1 noundef zeroext false)
  call void @process_shared_preload_libraries()
  call void @InitializeMaxBackends()
  call void @InitPostmasterChildSlots()
  call void @InitializeFastPathLocks()
  call void @process_shmem_requests()
  call void @InitializeShmemGUCs()
  call void @InitializeWalConsistencyChecking()
  call void @CreateSharedMemoryAndSemaphores()
  call void @set_max_safe_fds()
  %39 = call i64 @GetCurrentTimestamp()
  store i64 %39, ptr @PgStartTime, align 8
  call void @InitProcess()
  %40 = load ptr, ptr %7, align 8
  %41 = load ptr, ptr %6, align 8
  call void @PostgresMain(ptr noundef %40, ptr noundef %41) #19
  unreachable
}