; Function Attrs: noreturn nounwind uwtable
define dso_local void @PostgresSingleUserMain(i32 noundef %0, ptr noundef %1, ptr noundef %2) local_unnamed_addr #5 {
  %4 = alloca ptr, align 8
  call void @llvm.lifetime.start.p0(i64 8, ptr nonnull %4) #22
  store ptr null, ptr %4, align 8
  %5 = load ptr, ptr %1, align 8
  tail call void @InitStandaloneProcess(ptr noundef %5) #22
  tail call void @InitializeGUCOptions() #22
  call void @process_postgres_switches(i32 noundef %0, ptr noundef nonnull %1, i32 noundef 1, ptr noundef nonnull %4)
  %6 = load ptr, ptr %4, align 8
  %7 = icmp eq ptr %6, null
  br i1 %7, label %8, label %15

8:                                                ; preds = %3
  store ptr %2, ptr %4, align 8
  %9 = icmp eq ptr %2, null
  br i1 %9, label %10, label %15

10:                                               ; preds = %8
  %11 = call zeroext i1 @errstart_cold(i32 noundef 22, ptr noundef null) #23
  call void @llvm.assume(i1 %11)
  %12 = call i32 @errcode(i32 noundef 50856066) #22
  %13 = load ptr, ptr @progname, align 8
  %14 = call i32 (ptr, ...) @errmsg(ptr noundef nonnull @.str.87, ptr noundef %13) #22
  call void @errfinish(ptr noundef nonnull @.str.3, i32 noundef 4045, ptr noundef nonnull @__func__.PostgresSingleUserMain) #22
  unreachable

15:                                               ; preds = %8, %3
  %16 = load ptr, ptr @userDoption, align 8
  %17 = load ptr, ptr @progname, align 8
  %18 = call zeroext i1 @SelectConfigFiles(ptr noundef %16, ptr noundef %17) #22
  br i1 %18, label %20, label %19

19:                                               ; preds = %15
  call void @proc_exit(i32 noundef 1) #24
  unreachable

20:                                               ; preds = %15
  call void @checkDataDir() #22
  call void @ChangeToDataDir() #22
  call void @CreateDataDirLockFile(i1 noundef zeroext false) #22
  call void @LocalProcessControlFile(i1 noundef zeroext false) #22
  call void @process_shared_preload_libraries() #22
  call void @InitializeMaxBackends() #22
  call void @InitPostmasterChildSlots() #22
  call void @InitializeFastPathLocks() #22
  call void @process_shmem_requests() #22
  call void @InitializeShmemGUCs() #22
  call void @InitializeWalConsistencyChecking() #22
  call void @CreateSharedMemoryAndSemaphores() #22
  call void @set_max_safe_fds() #22
  %21 = call i64 @GetCurrentTimestamp() #22
  store i64 %21, ptr @PgStartTime, align 8
  call void @InitProcess() #22
  %22 = load ptr, ptr %4, align 8
  call void @PostgresMain(ptr noundef %22, ptr noundef %2) #26
  unreachable
}